target datalayout = "e-m:e-p270:32:32-p271:32:32-p272:64:64-i64:64-i128:128-f80:128-n8:16:32:64-S128"
target triple = "x86_64-pc-linux-gnu"

%"class.std::basic_string_view" = type { i64, ptr }
%"class.std::__cxx11::basic_string" = type { %"struct.std::__cxx11::basic_string<char>::_Alloc_hider", i64, %union.anon }
%"struct.std::__cxx11::basic_string<char>::_Alloc_hider" = type { ptr }
%union.anon = type { i64, [8 x i8] }
%"class.std::allocator" = type { i8 }
%"struct.nix::FdLock" = type <{ i32, i8, [3 x i8] }>

@_ZN3nix9verbosityE = external global i32, align 4
@_ZN3nix6loggerE = external global ptr, align 8
@.str.13 = private unnamed_addr constant [3 x i8] c"%s\00", align 1

; Function Attrs: mustprogress nounwind uwtable
define linkonce_odr noundef ptr @_ZNKSt7__cxx1112basic_stringIcSt11char_traitsIcESaIcEE7_M_dataEv(ptr noundef nonnull align 8 dereferenceable(32) %0) #2 comdat align 2 {
  %2 = alloca ptr, align 8
  store ptr %0, ptr %2, align 8
  %3 = load ptr, ptr %2, align 8
  %4 = getelementptr inbounds %"class.std::__cxx11::basic_string", ptr %3, i32 0, i32 0
  %5 = getelementptr inbounds %"struct.std::__cxx11::basic_string<char>::_Alloc_hider", ptr %4, i32 0, i32 0
  %6 = load ptr, ptr %5, align 8
  ret ptr %6
}

; Function Attrs: mustprogress nounwind uwtable
define linkonce_odr void @_ZNSt17basic_string_viewIcSt11char_traitsIcEEC2EPKcm(ptr noundef nonnull align 8 dereferenceable(16) %0, ptr noundef %1, i64 noundef %2) unnamed_addr #2 comdat align 2 {
  %4 = alloca ptr, align 8
  %5 = alloca ptr, align 8
  %6 = alloca i64, align 8
  store ptr %0, ptr %4, align 8
  store ptr %1, ptr %5, align 8
  store i64 %2, ptr %6, align 8
  %7 = load ptr, ptr %4, align 8
  %8 = getelementptr inbounds %"class.std::basic_string_view", ptr %7, i32 0, i32 0
  %9 = load i64, ptr %6, align 8
  store i64 %9, ptr %8, align 8
  %10 = getelementptr inbounds %"class.std::basic_string_view", ptr %7, i32 0, i32 1
  %11 = load ptr, ptr %5, align 8
  store ptr %11, ptr %10, align 8
  ret void
}

; Function Attrs: mustprogress nounwind uwtable
define linkonce_odr noundef i64 @_ZNKSt7__cxx1112basic_stringIcSt11char_traitsIcESaIcEE4sizeEv(ptr noundef nonnull align 8 dereferenceable(32) %0) #2 comdat align 2 {
  %2 = alloca ptr, align 8
  store ptr %0, ptr %2, align 8
  %3 = load ptr, ptr %2, align 8
  %4 = getelementptr inbounds %"class.std::__cxx11::basic_string", ptr %3, i32 0, i32 1
  %5 = load i64, ptr %4, align 8
  ret i64 %5
}

; Function Attrs: mustprogress nounwind uwtable
define linkonce_odr noundef ptr @_ZNKSt7__cxx1112basic_stringIcSt11char_traitsIcESaIcEE4dataEv(ptr noundef nonnull align 8 dereferenceable(32) %0) #2 comdat align 2 {
  %2 = alloca ptr, align 8
  store ptr %0, ptr %2, align 8
  %3 = load ptr, ptr %2, align 8
  %4 = call noundef ptr @_ZNKSt7__cxx1112basic_stringIcSt11char_traitsIcESaIcEE7_M_dataEv(ptr noundef nonnull align 8 dereferenceable(32) %3)
  ret ptr %4
}

; Function Attrs: mustprogress nounwind uwtable
define linkonce_odr { i64, ptr } @_ZNKSt7__cxx1112basic_stringIcSt11char_traitsIcESaIcEEcvSt17basic_string_viewIcS2_EEv(ptr noundef nonnull align 8 dereferenceable(32) %0) #2 comdat align 2 {
  %2 = alloca %"class.std::basic_string_view", align 8
  %3 = alloca ptr, align 8
  store ptr %0, ptr %3, align 8
  %4 = load ptr, ptr %3, align 8
  %5 = call noundef ptr @_ZNKSt7__cxx1112basic_stringIcSt11char_traitsIcESaIcEE4dataEv(ptr noundef nonnull align 8 dereferenceable(32) %4) #1
  %6 = call noundef i64 @_ZNKSt7__cxx1112basic_stringIcSt11char_traitsIcESaIcEE4sizeEv(ptr noundef nonnull align 8 dereferenceable(32) %4) #1
  call void @_ZNSt17basic_string_viewIcSt11char_traitsIcEEC2EPKcm(ptr noundef nonnull align 8 dereferenceable(16) %2, ptr noundef %5, i64 noundef %6) #1
  %7 = load { i64, ptr }, ptr %2, align 8
  ret { i64, ptr } %7
}

; Function Attrs: mustprogress uwtable
define void @_ZN3nix6FdLockC2EiNS_8LockTypeEbSt17basic_string_viewIcSt11char_traitsIcEE(ptr noundef nonnull align 4 dereferenceable(5) %0, i32 noundef %1, i32 noundef %2, i1 noundef zeroext %3, i64 %4, ptr %5) unnamed_addr #3 align 2 personality ptr @__gxx_personality_v0 {
  %7 = alloca %"class.std::basic_string_view", align 8
  %8 = alloca ptr, align 8
  %9 = alloca i32, align 4
  %10 = alloca i32, align 4
  %11 = alloca i8, align 1
  %12 = alloca i32, align 4
  %13 = alloca %"class.std::basic_string_view", align 8
  %14 = alloca %"class.std::__cxx11::basic_string", align 8
  %15 = alloca %"class.std::__cxx11::basic_string", align 8
  %16 = alloca %"class.std::allocator", align 1
  %17 = alloca ptr, align 8
  %18 = alloca i32, align 4
  %19 = getelementptr inbounds { i64, ptr }, ptr %7, i32 0, i32 0
  store i64 %4, ptr %19, align 8
  %20 = getelementptr inbounds { i64, ptr }, ptr %7, i32 0, i32 1
  store ptr %5, ptr %20, align 8
  store ptr %0, ptr %8, align 8
  store i32 %1, ptr %9, align 4
  store i32 %2, ptr %10, align 4
  %21 = zext i1 %3 to i8
  store i8 %21, ptr %11, align 1
  %22 = load ptr, ptr %8, align 8
  %23 = getelementptr inbounds %"struct.nix::FdLock", ptr %22, i32 0, i32 0
  %24 = load i32, ptr %9, align 4
  store i32 %24, ptr %23, align 4
  %25 = getelementptr inbounds %"struct.nix::FdLock", ptr %22, i32 0, i32 1
  store i8 0, ptr %25, align 4
  %26 = load i8, ptr %11, align 1
  %27 = trunc i8 %26 to i1
  br i1 %27, label %28, label %77

28:                                               ; preds = %6
  %29 = load i32, ptr %9, align 4
  %30 = load i32, ptr %10, align 4
  %31 = call noundef zeroext i1 @_ZN3nix8lockFileEiNS_8LockTypeEb(i32 noundef %29, i32 noundef %30, i1 noundef zeroext false)
  br i1 %31, label %76, label %32

32:                                               ; preds = %28
  br label %33

33:                                               ; preds = %32
  store i32 3, ptr %12, align 4
  %34 = load i32, ptr %12, align 4
  %35 = load i32, ptr @_ZN3nix9verbosityE, align 4
  %36 = icmp sle i32 %34, %35
  br i1 %36, label %37, label %69

37:                                               ; preds = %33
  %38 = load ptr, ptr @_ZN3nix6loggerE, align 8
  %39 = load i32, ptr %12, align 4
  call void @_ZNSaIcEC1Ev(ptr noundef nonnull align 1 dereferenceable(1) %16) #1
  invoke void @_ZNSt7__cxx1112basic_stringIcSt11char_traitsIcESaIcEEC2IS3_EEPKcRKS3_(ptr noundef nonnull align 8 dereferenceable(32) %15, ptr noundef @.str.13, ptr noundef nonnull align 1 dereferenceable(1) %16)
          to label %40 unwind label %55

40:                                               ; preds = %37
  invoke void @_ZN3nix3fmtIJSt17basic_string_viewIcSt11char_traitsIcEEEEENSt7__cxx1112basic_stringIcS3_SaIcEEERKS8_DpRKT_(ptr dead_on_unwind writable sret(%"class.std::__cxx11::basic_string") align 8 %14, ptr noundef nonnull align 8 dereferenceable(32) %15, ptr noundef nonnull align 8 dereferenceable(16) %7)
          to label %41 unwind label %59

41:                                               ; preds = %40
  %42 = call { i64, ptr } @_ZNKSt7__cxx1112basic_stringIcSt11char_traitsIcESaIcEEcvSt17basic_string_viewIcS2_EEv(ptr noundef nonnull align 8 dereferenceable(32) %14) #1
  %43 = getelementptr inbounds { i64, ptr }, ptr %13, i32 0, i32 0
  %44 = extractvalue { i64, ptr } %42, 0
  store i64 %44, ptr %43, align 8
  %45 = getelementptr inbounds { i64, ptr }, ptr %13, i32 0, i32 1
  %46 = extractvalue { i64, ptr } %42, 1
  store ptr %46, ptr %45, align 8
  %47 = getelementptr inbounds { i64, ptr }, ptr %13, i32 0, i32 0
  %48 = load i64, ptr %47, align 8
  %49 = getelementptr inbounds { i64, ptr }, ptr %13, i32 0, i32 1
  %50 = load ptr, ptr %49, align 8
  %51 = load ptr, ptr %38, align 8
  %52 = getelementptr inbounds ptr, ptr %51, i64 6
  %53 = load ptr, ptr %52, align 8
  invoke void %53(ptr noundef nonnull align 8 dereferenceable(8) %38, i32 noundef %39, i64 %48, ptr %50)
          to label %54 unwind label %63

54:                                               ; preds = %41
  call void @_ZNSt7__cxx1112basic_stringIcSt11char_traitsIcESaIcEED2Ev(ptr noundef nonnull align 8 dereferenceable(32) %14) #1
  call void @_ZNSt7__cxx1112basic_stringIcSt11char_traitsIcESaIcEED2Ev(ptr noundef nonnull align 8 dereferenceable(32) %15) #1
  call void @_ZNSaIcED1Ev(ptr noundef nonnull align 1 dereferenceable(1) %16) #1
  br label %69

55:                                               ; preds = %37
  %56 = landingpad { ptr, i32 }
          cleanup
  %57 = extractvalue { ptr, i32 } %56, 0
  store ptr %57, ptr %17, align 8
  %58 = extractvalue { ptr, i32 } %56, 1
  store i32 %58, ptr %18, align 4
  br label %68

59:                                               ; preds = %40
  %60 = landingpad { ptr, i32 }
          cleanup
  %61 = extractvalue { ptr, i32 } %60, 0
  store ptr %61, ptr %17, align 8
  %62 = extractvalue { ptr, i32 } %60, 1
  store i32 %62, ptr %18, align 4
  br label %67

63:                                               ; preds = %41
  %64 = landingpad { ptr, i32 }
          cleanup
  %65 = extractvalue { ptr, i32 } %64, 0
  store ptr %65, ptr %17, align 8
  %66 = extractvalue { ptr, i32 } %64, 1
  store i32 %66, ptr %18, align 4
  call void @_ZNSt7__cxx1112basic_stringIcSt11char_traitsIcESaIcEED2Ev(ptr noundef nonnull align 8 dereferenceable(32) %14) #1
  br label %67

67:                                               ; preds = %63, %59
  call void @_ZNSt7__cxx1112basic_stringIcSt11char_traitsIcESaIcEED2Ev(ptr noundef nonnull align 8 dereferenceable(32) %15) #1
  br label %68

68:                                               ; preds = %67, %55
  call void @_ZNSaIcED1Ev(ptr noundef nonnull align 1 dereferenceable(1) %16) #1
  br label %84

69:                                               ; preds = %54, %33
  br label %70

70:                                               ; preds = %69
  %71 = load i32, ptr %9, align 4
  %72 = load i32, ptr %10, align 4
  %73 = call noundef zeroext i1 @_ZN3nix8lockFileEiNS_8LockTypeEb(i32 noundef %71, i32 noundef %72, i1 noundef zeroext true)
  %74 = getelementptr inbounds %"struct.nix::FdLock", ptr %22, i32 0, i32 1
  %75 = zext i1 %73 to i8
  store i8 %75, ptr %74, align 4
  br label %76

76:                                               ; preds = %70, %28
  br label %83

77:                                               ; preds = %6
  %78 = load i32, ptr %9, align 4
  %79 = load i32, ptr %10, align 4
  %80 = call noundef zeroext i1 @_ZN3nix8lockFileEiNS_8LockTypeEb(i32 noundef %78, i32 noundef %79, i1 noundef zeroext false)
  %81 = getelementptr inbounds %"struct.nix::FdLock", ptr %22, i32 0, i32 1
  %82 = zext i1 %80 to i8
  store i8 %82, ptr %81, align 4
  br label %83

83:                                               ; preds = %77, %76
  ret void

84:                                               ; preds = %68
  %85 = load ptr, ptr %17, align 8
  %86 = load i32, ptr %18, align 4
  %87 = insertvalue { ptr, i32 } poison, ptr %85, 0
  %88 = insertvalue { ptr, i32 } %87, i32 %86, 1
  resume { ptr, i32 } %88
}