; Function Attrs: mustprogress uwtable
define void @_ZN3nix6FdLockC2EiNS_8LockTypeEbSt17basic_string_viewIcSt11char_traitsIcEE(ptr nocapture noundef nonnull writeonly align 4 dereferenceable(5) %0, i32 noundef %1, i32 noundef %2, i1 noundef zeroext %3, i64 %4, ptr %5) unnamed_addr #2 align 2 personality ptr @__gxx_personality_v0 {
  %7 = alloca %"class.std::basic_string_view", align 8
  %8 = alloca %"class.std::__cxx11::basic_string", align 8
  %9 = alloca %"class.std::__cxx11::basic_string", align 8
  %10 = alloca %"class.std::allocator", align 1
  store i64 %4, ptr %7, align 8
  %11 = getelementptr inbounds i8, ptr %7, i64 8
  store ptr %5, ptr %11, align 8
  store i32 %1, ptr %0, align 4
  %12 = getelementptr inbounds i8, ptr %0, i64 4
  store i8 0, ptr %12, align 4
  %13 = tail call noundef zeroext i1 @_ZN3nix8lockFileEiNS_8LockTypeEb(i32 noundef %1, i32 noundef %2, i1 noundef zeroext false)
  br i1 %3, label %14, label %.sink.split

14:                                               ; preds = %6
  br i1 %13, label %51, label %15

15:                                               ; preds = %14
  %16 = load i32, ptr @_ZN3nix9verbosityE, align 4
  %17 = icmp sgt i32 %16, 2
  br i1 %17, label %18, label %48

18:                                               ; preds = %15
  %19 = load ptr, ptr @_ZN3nix6loggerE, align 8
  call void @_ZNSaIcEC1Ev(ptr noundef nonnull align 1 dereferenceable(1) %10) #27
  invoke void @_ZNSt7__cxx1112basic_stringIcSt11char_traitsIcESaIcEEC2IS3_EEPKcRKS3_(ptr noundef nonnull align 8 dereferenceable(32) %9, ptr noundef nonnull @.str.13, ptr noundef nonnull align 1 dereferenceable(1) %10)
          to label %20 unwind label %40

20:                                               ; preds = %18
  invoke void @_ZN3nix3fmtIJSt17basic_string_viewIcSt11char_traitsIcEEEEENSt7__cxx1112basic_stringIcS3_SaIcEEERKS8_DpRKT_(ptr dead_on_unwind nonnull writable sret(%"class.std::__cxx11::basic_string") align 8 %8, ptr noundef nonnull align 8 dereferenceable(32) %9, ptr noundef nonnull align 8 dereferenceable(16) %7)
          to label %21 unwind label %42

21:                                               ; preds = %20
  %22 = load ptr, ptr %8, align 8
  %23 = getelementptr inbounds i8, ptr %8, i64 8
  %24 = load i64, ptr %23, align 8
  %25 = load ptr, ptr %19, align 8
  %26 = getelementptr inbounds i8, ptr %25, i64 48
  %27 = load ptr, ptr %26, align 8
  invoke void %27(ptr noundef nonnull align 8 dereferenceable(8) %19, i32 noundef 3, i64 %24, ptr %22)
          to label %28 unwind label %44

28:                                               ; preds = %21
  %29 = load ptr, ptr %8, align 8
  %30 = getelementptr inbounds i8, ptr %8, i64 16
  %31 = icmp eq ptr %29, %30
  br i1 %31, label %_ZNKSt7__cxx1112basic_stringIcSt11char_traitsIcESaIcEE11_M_is_localEv.exit.thread.i.i, label %_ZNKSt7__cxx1112basic_stringIcSt11char_traitsIcESaIcEE11_M_is_localEv.exit.i.i

_ZNKSt7__cxx1112basic_stringIcSt11char_traitsIcESaIcEE11_M_is_localEv.exit.thread.i.i: ; preds = %28
  %32 = load i64, ptr %23, align 8
  %33 = icmp ult i64 %32, 16
  call void @llvm.assume(i1 %33)
  br label %_ZNSt7__cxx1112basic_stringIcSt11char_traitsIcESaIcEED2Ev.exit

_ZNKSt7__cxx1112basic_stringIcSt11char_traitsIcESaIcEE11_M_is_localEv.exit.i.i: ; preds = %28
  call void @_ZdlPv(ptr noundef %29) #30
  br label %_ZNSt7__cxx1112basic_stringIcSt11char_traitsIcESaIcEED2Ev.exit

_ZNSt7__cxx1112basic_stringIcSt11char_traitsIcESaIcEED2Ev.exit: ; preds = %_ZNKSt7__cxx1112basic_stringIcSt11char_traitsIcESaIcEE11_M_is_localEv.exit.thread.i.i, %_ZNKSt7__cxx1112basic_stringIcSt11char_traitsIcESaIcEE11_M_is_localEv.exit.i.i
  call void @_ZNSaIcED2Ev(ptr noundef nonnull align 1 dereferenceable(1) %8) #27
  %34 = load ptr, ptr %9, align 8
  %35 = getelementptr inbounds i8, ptr %9, i64 16
  %36 = icmp eq ptr %34, %35
  br i1 %36, label %_ZNKSt7__cxx1112basic_stringIcSt11char_traitsIcESaIcEE11_M_is_localEv.exit.thread.i.i17, label %_ZNKSt7__cxx1112basic_stringIcSt11char_traitsIcESaIcEE11_M_is_localEv.exit.i.i16

_ZNKSt7__cxx1112basic_stringIcSt11char_traitsIcESaIcEE11_M_is_localEv.exit.thread.i.i17: ; preds = %_ZNSt7__cxx1112basic_stringIcSt11char_traitsIcESaIcEED2Ev.exit
  %37 = getelementptr inbounds i8, ptr %9, i64 8
  %38 = load i64, ptr %37, align 8
  %39 = icmp ult i64 %38, 16
  call void @llvm.assume(i1 %39)
  br label %_ZNSt7__cxx1112basic_stringIcSt11char_traitsIcESaIcEED2Ev.exit18

_ZNKSt7__cxx1112basic_stringIcSt11char_traitsIcESaIcEE11_M_is_localEv.exit.i.i16: ; preds = %_ZNSt7__cxx1112basic_stringIcSt11char_traitsIcESaIcEED2Ev.exit
  call void @_ZdlPv(ptr noundef %34) #30
  br label %_ZNSt7__cxx1112basic_stringIcSt11char_traitsIcESaIcEED2Ev.exit18

_ZNSt7__cxx1112basic_stringIcSt11char_traitsIcESaIcEED2Ev.exit18: ; preds = %_ZNKSt7__cxx1112basic_stringIcSt11char_traitsIcESaIcEE11_M_is_localEv.exit.thread.i.i17, %_ZNKSt7__cxx1112basic_stringIcSt11char_traitsIcESaIcEE11_M_is_localEv.exit.i.i16
  call void @_ZNSaIcED2Ev(ptr noundef nonnull align 1 dereferenceable(1) %9) #27
  call void @_ZNSaIcED1Ev(ptr noundef nonnull align 1 dereferenceable(1) %10) #27
  br label %48

40:                                               ; preds = %18
  %41 = landingpad { ptr, i32 }
          cleanup
  br label %47

42:                                               ; preds = %20
  %43 = landingpad { ptr, i32 }
          cleanup
  br label %46

44:                                               ; preds = %21
  %45 = landingpad { ptr, i32 }
          cleanup
  call void @_ZNSt7__cxx1112basic_stringIcSt11char_traitsIcESaIcEED2Ev(ptr noundef nonnull align 8 dereferenceable(32) %8) #27
  br label %46

46:                                               ; preds = %44, %42
  %.pn = phi { ptr, i32 } [ %45, %44 ], [ %43, %42 ]
  call void @_ZNSt7__cxx1112basic_stringIcSt11char_traitsIcESaIcEED2Ev(ptr noundef nonnull align 8 dereferenceable(32) %9) #27
  br label %47

47:                                               ; preds = %46, %40
  %.pn.pn = phi { ptr, i32 } [ %.pn, %46 ], [ %41, %40 ]
  call void @_ZNSaIcED1Ev(ptr noundef nonnull align 1 dereferenceable(1) %10) #27
  resume { ptr, i32 } %.pn.pn

48:                                               ; preds = %15, %_ZNSt7__cxx1112basic_stringIcSt11char_traitsIcESaIcEED2Ev.exit18
  %49 = call noundef zeroext i1 @_ZN3nix8lockFileEiNS_8LockTypeEb(i32 noundef %1, i32 noundef %2, i1 noundef zeroext true)
  br label %.sink.split

.sink.split:                                      ; preds = %6, %48
  %.sink19 = phi i1 [ %49, %48 ], [ %13, %6 ]
  %50 = zext i1 %.sink19 to i8
  store i8 %50, ptr %12, align 4
  br label %51

51:                                               ; preds = %.sink.split, %14
  ret void
}